target datalayout = "e-m:e-p270:32:32-p271:32:32-p272:64:64-i64:64-i128:128-f80:128-n8:16:32:64-S128"
target triple = "x86_64-pc-linux-gnu"

; Function Attrs: nounwind uwtable
define internal i32 @rsa_flatten_test(ptr noundef %0) #0 {
  %2 = alloca i32, align 4
  %3 = alloca ptr, align 8
  %4 = alloca i32, align 4
  %5 = alloca [512 x i8], align 16
  %6 = alloca [512 x i8], align 16
  %7 = alloca i32, align 4
  %8 = alloca i32, align 4
  %9 = alloca i32, align 4
  store ptr %0, ptr %3, align 8, !tbaa !129
  call void @llvm.lifetime.start.p0(i64 4, ptr %4) #10
  call void @llvm.lifetime.start.p0(i64 512, ptr %5) #10
  call void @llvm.lifetime.start.p0(i64 512, ptr %6) #10
  call void @llvm.lifetime.start.p0(i64 4, ptr %7) #10
  store i32 512, ptr %7, align 4, !tbaa !14
  call void @llvm.lifetime.start.p0(i64 4, ptr %8) #10
  store i32 512, ptr %8, align 4, !tbaa !14
  %10 = getelementptr inbounds [512 x i8], ptr %5, i64 0, i64 0
  %11 = getelementptr inbounds [512 x i8], ptr %6, i64 0, i64 0
  %12 = call i32 @wc_RsaFlattenPublicKey(ptr noundef null, ptr noundef %10, ptr noundef %7, ptr noundef %11, ptr noundef %8)
  store i32 %12, ptr %4, align 4, !tbaa !14
  %13 = load i32, ptr %4, align 4, !tbaa !14
  %14 = icmp ne i32 %13, -173
  br i1 %14, label %15, label %27

15:                                               ; preds = %1
  %16 = load i32, ptr %4, align 4, !tbaa !14
  %17 = sub nsw i32 0, %16
  %18 = zext i32 %17 to i64
  %19 = and i64 %18, 2047
  %20 = trunc i64 %19 to i32
  %21 = sext i32 %20 to i64
  %22 = mul nsw i64 %21, 100000
  %23 = add nsw i64 19413, %22
  %24 = add nsw i64 %23, 536870912
  %25 = sub nsw i64 0, %24
  %26 = trunc i64 %25 to i32
  store i32 %26, ptr %2, align 4
  store i32 1, ptr %9, align 4
  br label %159

27:                                               ; preds = %1
  %28 = load ptr, ptr %3, align 8, !tbaa !129
  %29 = getelementptr inbounds [512 x i8], ptr %6, i64 0, i64 0
  %30 = call i32 @wc_RsaFlattenPublicKey(ptr noundef %28, ptr noundef null, ptr noundef %7, ptr noundef %29, ptr noundef %8)
  store i32 %30, ptr %4, align 4, !tbaa !14
  %31 = load i32, ptr %4, align 4, !tbaa !14
  %32 = icmp ne i32 %31, -173
  br i1 %32, label %33, label %45

33:                                               ; preds = %27
  %34 = load i32, ptr %4, align 4, !tbaa !14
  %35 = sub nsw i32 0, %34
  %36 = zext i32 %35 to i64
  %37 = and i64 %36, 2047
  %38 = trunc i64 %37 to i32
  %39 = sext i32 %38 to i64
  %40 = mul nsw i64 %39, 100000
  %41 = add nsw i64 19417, %40
  %42 = add nsw i64 %41, 536870912
  %43 = sub nsw i64 0, %42
  %44 = trunc i64 %43 to i32
  store i32 %44, ptr %2, align 4
  store i32 1, ptr %9, align 4
  br label %159

45:                                               ; preds = %27
  %46 = load ptr, ptr %3, align 8, !tbaa !129
  %47 = getelementptr inbounds [512 x i8], ptr %5, i64 0, i64 0
  %48 = getelementptr inbounds [512 x i8], ptr %6, i64 0, i64 0
  %49 = call i32 @wc_RsaFlattenPublicKey(ptr noundef %46, ptr noundef %47, ptr noundef null, ptr noundef %48, ptr noundef %8)
  store i32 %49, ptr %4, align 4, !tbaa !14
  %50 = load i32, ptr %4, align 4, !tbaa !14
  %51 = icmp ne i32 %50, -173
  br i1 %51, label %52, label %64

52:                                               ; preds = %45
  %53 = load i32, ptr %4, align 4, !tbaa !14
  %54 = sub nsw i32 0, %53
  %55 = zext i32 %54 to i64
  %56 = and i64 %55, 2047
  %57 = trunc i64 %56 to i32
  %58 = sext i32 %57 to i64
  %59 = mul nsw i64 %58, 100000
  %60 = add nsw i64 19421, %59
  %61 = add nsw i64 %60, 536870912
  %62 = sub nsw i64 0, %61
  %63 = trunc i64 %62 to i32
  store i32 %63, ptr %2, align 4
  store i32 1, ptr %9, align 4
  br label %159

64:                                               ; preds = %45
  %65 = load ptr, ptr %3, align 8, !tbaa !129
  %66 = getelementptr inbounds [512 x i8], ptr %5, i64 0, i64 0
  %67 = call i32 @wc_RsaFlattenPublicKey(ptr noundef %65, ptr noundef %66, ptr noundef %7, ptr noundef null, ptr noundef %8)
  store i32 %67, ptr %4, align 4, !tbaa !14
  %68 = load i32, ptr %4, align 4, !tbaa !14
  %69 = icmp ne i32 %68, -173
  br i1 %69, label %70, label %82

70:                                               ; preds = %64
  %71 = load i32, ptr %4, align 4, !tbaa !14
  %72 = sub nsw i32 0, %71
  %73 = zext i32 %72 to i64
  %74 = and i64 %73, 2047
  %75 = trunc i64 %74 to i32
  %76 = sext i32 %75 to i64
  %77 = mul nsw i64 %76, 100000
  %78 = add nsw i64 19425, %77
  %79 = add nsw i64 %78, 536870912
  %80 = sub nsw i64 0, %79
  %81 = trunc i64 %80 to i32
  store i32 %81, ptr %2, align 4
  store i32 1, ptr %9, align 4
  br label %159

82:                                               ; preds = %64
  %83 = load ptr, ptr %3, align 8, !tbaa !129
  %84 = getelementptr inbounds [512 x i8], ptr %5, i64 0, i64 0
  %85 = getelementptr inbounds [512 x i8], ptr %6, i64 0, i64 0
  %86 = call i32 @wc_RsaFlattenPublicKey(ptr noundef %83, ptr noundef %84, ptr noundef %7, ptr noundef %85, ptr noundef null)
  store i32 %86, ptr %4, align 4, !tbaa !14
  %87 = load i32, ptr %4, align 4, !tbaa !14
  %88 = icmp ne i32 %87, -173
  br i1 %88, label %89, label %101

89:                                               ; preds = %82
  %90 = load i32, ptr %4, align 4, !tbaa !14
  %91 = sub nsw i32 0, %90
  %92 = zext i32 %91 to i64
  %93 = and i64 %92, 2047
  %94 = trunc i64 %93 to i32
  %95 = sext i32 %94 to i64
  %96 = mul nsw i64 %95, 100000
  %97 = add nsw i64 19429, %96
  %98 = add nsw i64 %97, 536870912
  %99 = sub nsw i64 0, %98
  %100 = trunc i64 %99 to i32
  store i32 %100, ptr %2, align 4
  store i32 1, ptr %9, align 4
  br label %159

101:                                              ; preds = %82
  %102 = load ptr, ptr %3, align 8, !tbaa !129
  %103 = getelementptr inbounds [512 x i8], ptr %5, i64 0, i64 0
  %104 = getelementptr inbounds [512 x i8], ptr %6, i64 0, i64 0
  %105 = call i32 @wc_RsaFlattenPublicKey(ptr noundef %102, ptr noundef %103, ptr noundef %7, ptr noundef %104, ptr noundef %8)
  store i32 %105, ptr %4, align 4, !tbaa !14
  %106 = load i32, ptr %4, align 4, !tbaa !14
  %107 = icmp ne i32 %106, 0
  br i1 %107, label %108, label %120

108:                                              ; preds = %101
  %109 = load i32, ptr %4, align 4, !tbaa !14
  %110 = sub nsw i32 0, %109
  %111 = zext i32 %110 to i64
  %112 = and i64 %111, 2047
  %113 = trunc i64 %112 to i32
  %114 = sext i32 %113 to i64
  %115 = mul nsw i64 %114, 100000
  %116 = add nsw i64 19433, %115
  %117 = add nsw i64 %116, 536870912
  %118 = sub nsw i64 0, %117
  %119 = trunc i64 %118 to i32
  store i32 %119, ptr %2, align 4
  store i32 1, ptr %9, align 4
  br label %159

120:                                              ; preds = %101
  store i32 0, ptr %7, align 4, !tbaa !14
  %121 = load ptr, ptr %3, align 8, !tbaa !129
  %122 = getelementptr inbounds [512 x i8], ptr %5, i64 0, i64 0
  %123 = getelementptr inbounds [512 x i8], ptr %6, i64 0, i64 0
  %124 = call i32 @wc_RsaFlattenPublicKey(ptr noundef %121, ptr noundef %122, ptr noundef %7, ptr noundef %123, ptr noundef %8)
  store i32 %124, ptr %4, align 4, !tbaa !14
  %125 = load i32, ptr %4, align 4, !tbaa !14
  %126 = icmp ne i32 %125, -131
  br i1 %126, label %127, label %139

127:                                              ; preds = %120
  %128 = load i32, ptr %4, align 4, !tbaa !14
  %129 = sub nsw i32 0, %128
  %130 = zext i32 %129 to i64
  %131 = and i64 %130, 2047
  %132 = trunc i64 %131 to i32
  %133 = sext i32 %132 to i64
  %134 = mul nsw i64 %133, 100000
  %135 = add nsw i64 19438, %134
  %136 = add nsw i64 %135, 536870912
  %137 = sub nsw i64 0, %136
  %138 = trunc i64 %137 to i32
  store i32 %138, ptr %2, align 4
  store i32 1, ptr %9, align 4
  br label %159

139:                                              ; preds = %120
  store i32 512, ptr %7, align 4, !tbaa !14
  store i32 0, ptr %8, align 4, !tbaa !14
  %140 = load ptr, ptr %3, align 8, !tbaa !129
  %141 = getelementptr inbounds [512 x i8], ptr %5, i64 0, i64 0
  %142 = getelementptr inbounds [512 x i8], ptr %6, i64 0, i64 0
  %143 = call i32 @wc_RsaFlattenPublicKey(ptr noundef %140, ptr noundef %141, ptr noundef %7, ptr noundef %142, ptr noundef %8)
  store i32 %143, ptr %4, align 4, !tbaa !14
  %144 = load i32, ptr %4, align 4, !tbaa !14
  %145 = icmp ne i32 %144, -131
  br i1 %145, label %146, label %158

146:                                              ; preds = %139
  %147 = load i32, ptr %4, align 4, !tbaa !14
  %148 = sub nsw i32 0, %147
  %149 = zext i32 %148 to i64
  %150 = and i64 %149, 2047
  %151 = trunc i64 %150 to i32
  %152 = sext i32 %151 to i64
  %153 = mul nsw i64 %152, 100000
  %154 = add nsw i64 19444, %153
  %155 = add nsw i64 %154, 536870912
  %156 = sub nsw i64 0, %155
  %157 = trunc i64 %156 to i32
  store i32 %157, ptr %2, align 4
  store i32 1, ptr %9, align 4
  br label %159

158:                                              ; preds = %139
  store i32 0, ptr %2, align 4
  store i32 1, ptr %9, align 4
  br label %159

159:                                              ; preds = %158, %146, %127, %108, %89, %70, %52, %33, %15
  call void @llvm.lifetime.end.p0(i64 4, ptr %8) #10
  call void @llvm.lifetime.end.p0(i64 4, ptr %7) #10
  call void @llvm.lifetime.end.p0(i64 512, ptr %6) #10
  call void @llvm.lifetime.end.p0(i64 512, ptr %5) #10
  call void @llvm.lifetime.end.p0(i64 4, ptr %4) #10
  %160 = load i32, ptr %2, align 4
  ret i32 %160
}