; Function Attrs: nounwind uwtable
define internal fastcc range(i32 -741590356, 1) i32 @rsa_flatten_test(ptr noundef nonnull %0) unnamed_addr #0 {
  %2 = alloca [512 x i8], align 16
  %3 = alloca [512 x i8], align 16
  %4 = alloca i32, align 4
  %5 = alloca i32, align 4
  call void @llvm.lifetime.start.p0(i64 512, ptr nonnull %2) #19
  call void @llvm.lifetime.start.p0(i64 512, ptr nonnull %3) #19
  call void @llvm.lifetime.start.p0(i64 4, ptr nonnull %4) #19
  store i32 512, ptr %4, align 4, !tbaa !22
  call void @llvm.lifetime.start.p0(i64 4, ptr nonnull %5) #19
  store i32 512, ptr %5, align 4, !tbaa !22
  %6 = call i32 @wc_RsaFlattenPublicKey(ptr noundef null, ptr noundef nonnull %2, ptr noundef nonnull %4, ptr noundef nonnull %3, ptr noundef nonnull %5) #19
  %.not = icmp eq i32 %6, -173
  br i1 %.not, label %11, label %7

7:                                                ; preds = %1
  %8 = sub nsw i32 0, %6
  %9 = and i32 %8, 2047
  %narrow.neg60 = mul nsw i32 %9, -100000
  %10 = add nsw i32 %narrow.neg60, -536890325
  br label %53

11:                                               ; preds = %1
  %12 = call i32 @wc_RsaFlattenPublicKey(ptr noundef nonnull %0, ptr noundef null, ptr noundef nonnull %4, ptr noundef nonnull %3, ptr noundef nonnull %5) #19
  %.not31 = icmp eq i32 %12, -173
  br i1 %.not31, label %17, label %13

13:                                               ; preds = %11
  %14 = sub nsw i32 0, %12
  %15 = and i32 %14, 2047
  %narrow.neg57 = mul nsw i32 %15, -100000
  %16 = add nsw i32 %narrow.neg57, -536890329
  br label %53

17:                                               ; preds = %11
  %18 = call i32 @wc_RsaFlattenPublicKey(ptr noundef nonnull %0, ptr noundef nonnull %2, ptr noundef null, ptr noundef nonnull %3, ptr noundef nonnull %5) #19
  %.not32 = icmp eq i32 %18, -173
  br i1 %.not32, label %23, label %19

19:                                               ; preds = %17
  %20 = sub nsw i32 0, %18
  %21 = and i32 %20, 2047
  %narrow.neg54 = mul nsw i32 %21, -100000
  %22 = add nsw i32 %narrow.neg54, -536890333
  br label %53

23:                                               ; preds = %17
  %24 = call i32 @wc_RsaFlattenPublicKey(ptr noundef nonnull %0, ptr noundef nonnull %2, ptr noundef nonnull %4, ptr noundef null, ptr noundef nonnull %5) #19
  %.not33 = icmp eq i32 %24, -173
  br i1 %.not33, label %29, label %25

25:                                               ; preds = %23
  %26 = sub nsw i32 0, %24
  %27 = and i32 %26, 2047
  %narrow.neg51 = mul nsw i32 %27, -100000
  %28 = add nsw i32 %narrow.neg51, -536890337
  br label %53

29:                                               ; preds = %23
  %30 = call i32 @wc_RsaFlattenPublicKey(ptr noundef nonnull %0, ptr noundef nonnull %2, ptr noundef nonnull %4, ptr noundef nonnull %3, ptr noundef null) #19
  %.not34 = icmp eq i32 %30, -173
  br i1 %.not34, label %35, label %31

31:                                               ; preds = %29
  %32 = sub nsw i32 0, %30
  %33 = and i32 %32, 2047
  %narrow.neg48 = mul nsw i32 %33, -100000
  %34 = add nsw i32 %narrow.neg48, -536890341
  br label %53

35:                                               ; preds = %29
  %36 = call i32 @wc_RsaFlattenPublicKey(ptr noundef nonnull %0, ptr noundef nonnull %2, ptr noundef nonnull %4, ptr noundef nonnull %3, ptr noundef nonnull %5) #19
  %.not35 = icmp eq i32 %36, 0
  br i1 %.not35, label %41, label %37

37:                                               ; preds = %35
  %38 = sub nsw i32 0, %36
  %39 = and i32 %38, 2047
  %narrow.neg45 = mul nsw i32 %39, -100000
  %40 = add nsw i32 %narrow.neg45, -536890345
  br label %53

41:                                               ; preds = %35
  store i32 0, ptr %4, align 4, !tbaa !22
  %42 = call i32 @wc_RsaFlattenPublicKey(ptr noundef nonnull %0, ptr noundef nonnull %2, ptr noundef nonnull %4, ptr noundef nonnull %3, ptr noundef nonnull %5) #19
  %.not36 = icmp eq i32 %42, -131
  br i1 %.not36, label %47, label %43

43:                                               ; preds = %41
  %44 = sub nsw i32 0, %42
  %45 = and i32 %44, 2047
  %narrow.neg42 = mul nsw i32 %45, -100000
  %46 = add nsw i32 %narrow.neg42, -536890350
  br label %53

47:                                               ; preds = %41
  store i32 512, ptr %4, align 4, !tbaa !22
  store i32 0, ptr %5, align 4, !tbaa !22
  %48 = call i32 @wc_RsaFlattenPublicKey(ptr noundef nonnull %0, ptr noundef nonnull %2, ptr noundef nonnull %4, ptr noundef nonnull %3, ptr noundef nonnull %5) #19
  %.not37 = icmp eq i32 %48, -131
  br i1 %.not37, label %53, label %49

49:                                               ; preds = %47
  %50 = sub nsw i32 0, %48
  %51 = and i32 %50, 2047
  %narrow.neg = mul nsw i32 %51, -100000
  %52 = add nsw i32 %narrow.neg, -536890356
  br label %53

53:                                               ; preds = %47, %49, %43, %37, %31, %25, %19, %13, %7
  %.0 = phi i32 [ %10, %7 ], [ %16, %13 ], [ %22, %19 ], [ %28, %25 ], [ %34, %31 ], [ %40, %37 ], [ %46, %43 ], [ %52, %49 ], [ 0, %47 ]
  call void @llvm.lifetime.end.p0(i64 4, ptr nonnull %5) #19
  call void @llvm.lifetime.end.p0(i64 4, ptr nonnull %4) #19
  call void @llvm.lifetime.end.p0(i64 512, ptr nonnull %3) #19
  call void @llvm.lifetime.end.p0(i64 512, ptr nonnull %2) #19
  ret i32 %.0
}